target datalayout = "e-m:e-p270:32:32-p271:32:32-p272:64:64-i64:64-i128:128-f80:128-n8:16:32:64-S128"
target triple = "x86_64-pc-linux-gnu"

%struct.SurfaceDataRasInfo = type { %struct.SurfaceDataBounds, ptr, i32, i32, i32, i32, ptr, ptr, ptr, ptr, ptr, ptr, i32, %union.anon.0 }
%struct.SurfaceDataBounds = type { i32, i32, i32, i32 }
%union.anon.0 = type { ptr, [56 x i8] }

; Function Attrs: nounwind uwtable
define hidden void @ByteIndexedBmToUshortGrayXparBgCopy(ptr noundef %0, ptr noundef %1, i32 noundef %2, i32 noundef %3, i32 noundef %4, ptr noundef %5, ptr noundef %6, ptr noundef %7, ptr noundef %8) #1 {
  %10 = alloca ptr, align 8
  %11 = alloca ptr, align 8
  %12 = alloca i32, align 4
  %13 = alloca i32, align 4
  %14 = alloca i32, align 4
  %15 = alloca ptr, align 8
  %16 = alloca ptr, align 8
  %17 = alloca ptr, align 8
  %18 = alloca ptr, align 8
  %19 = alloca [256 x i32], align 16
  %20 = alloca ptr, align 8
  %21 = alloca i32, align 4
  %22 = alloca ptr, align 8
  %23 = alloca i32, align 4
  %24 = alloca i32, align 4
  %25 = alloca i32, align 4
  %26 = alloca i32, align 4
  %27 = alloca i32, align 4
  %28 = alloca ptr, align 8
  %29 = alloca ptr, align 8
  %30 = alloca i32, align 4
  %31 = alloca i32, align 4
  %32 = alloca i32, align 4
  %33 = alloca i32, align 4
  store ptr %0, ptr %10, align 8
  store ptr %1, ptr %11, align 8
  store i32 %2, ptr %12, align 4
  store i32 %3, ptr %13, align 4
  store i32 %4, ptr %14, align 4
  store ptr %5, ptr %15, align 8
  store ptr %6, ptr %16, align 8
  store ptr %7, ptr %17, align 8
  store ptr %8, ptr %18, align 8
  br label %34

34:                                               ; preds = %9
  %35 = load ptr, ptr %15, align 8
  %36 = getelementptr inbounds %struct.SurfaceDataRasInfo, ptr %35, i32 0, i32 6
  %37 = load ptr, ptr %36, align 8
  store ptr %37, ptr %20, align 8
  %38 = load ptr, ptr %15, align 8
  %39 = getelementptr inbounds %struct.SurfaceDataRasInfo, ptr %38, i32 0, i32 5
  %40 = load i32, ptr %39, align 4
  store i32 %40, ptr %21, align 4
  %41 = load i32, ptr %21, align 4
  %42 = icmp uge i32 %41, 256
  br i1 %42, label %43, label %44

43:                                               ; preds = %34
  store i32 256, ptr %21, align 4
  br label %58

44:                                               ; preds = %34
  %45 = load i32, ptr %21, align 4
  %46 = zext i32 %45 to i64
  %47 = getelementptr inbounds [256 x i32], ptr %19, i64 0, i64 %46
  store ptr %47, ptr %22, align 8
  br label %48

48:                                               ; preds = %52, %44
  %49 = load i32, ptr %14, align 4
  %50 = load ptr, ptr %22, align 8
  %51 = getelementptr inbounds i32, ptr %50, i64 0
  store i32 %49, ptr %51, align 4
  br label %52

52:                                               ; preds = %48
  %53 = load ptr, ptr %22, align 8
  %54 = getelementptr inbounds i32, ptr %53, i32 1
  store ptr %54, ptr %22, align 8
  %55 = getelementptr inbounds [256 x i32], ptr %19, i64 0, i64 256
  %56 = icmp ult ptr %54, %55
  br i1 %56, label %48, label %57, !llvm.loop !41

57:                                               ; preds = %52
  br label %58

58:                                               ; preds = %57, %43
  br label %59

59:                                               ; preds = %58
  store i32 0, ptr %23, align 4
  br label %60

60:                                               ; preds = %103, %59
  br label %61

61:                                               ; preds = %60
  %62 = load ptr, ptr %20, align 8
  %63 = load i32, ptr %23, align 4
  %64 = zext i32 %63 to i64
  %65 = getelementptr inbounds i32, ptr %62, i64 %64
  %66 = load i32, ptr %65, align 4
  store i32 %66, ptr %24, align 4
  %67 = load i32, ptr %24, align 4
  %68 = icmp slt i32 %67, 0
  br i1 %68, label %69, label %96

69:                                               ; preds = %61
  br label %70

70:                                               ; preds = %69
  br label %71

71:                                               ; preds = %70
  %72 = load i32, ptr %24, align 4
  %73 = and i32 %72, 255
  store i32 %73, ptr %27, align 4
  %74 = load i32, ptr %24, align 4
  %75 = ashr i32 %74, 8
  %76 = and i32 %75, 255
  store i32 %76, ptr %26, align 4
  %77 = load i32, ptr %24, align 4
  %78 = ashr i32 %77, 16
  %79 = and i32 %78, 255
  store i32 %79, ptr %25, align 4
  br label %80

80:                                               ; preds = %71
  %81 = load i32, ptr %25, align 4
  %82 = mul nsw i32 19672, %81
  %83 = load i32, ptr %26, align 4
  %84 = mul nsw i32 38621, %83
  %85 = add nsw i32 %82, %84
  %86 = load i32, ptr %27, align 4
  %87 = mul nsw i32 7500, %86
  %88 = add nsw i32 %85, %87
  %89 = sdiv i32 %88, 256
  %90 = trunc i32 %89 to i16
  %91 = zext i16 %90 to i32
  %92 = load i32, ptr %23, align 4
  %93 = zext i32 %92 to i64
  %94 = getelementptr inbounds [256 x i32], ptr %19, i64 0, i64 %93
  store i32 %91, ptr %94, align 4
  br label %95

95:                                               ; preds = %80
  br label %101

96:                                               ; preds = %61
  %97 = load i32, ptr %14, align 4
  %98 = load i32, ptr %23, align 4
  %99 = zext i32 %98 to i64
  %100 = getelementptr inbounds [256 x i32], ptr %19, i64 0, i64 %99
  store i32 %97, ptr %100, align 4
  br label %101

101:                                              ; preds = %96, %95
  br label %102

102:                                              ; preds = %101
  br label %103

103:                                              ; preds = %102
  %104 = load i32, ptr %23, align 4
  %105 = add i32 %104, 1
  store i32 %105, ptr %23, align 4
  %106 = load i32, ptr %21, align 4
  %107 = icmp ult i32 %105, %106
  br i1 %107, label %60, label %108, !llvm.loop !42

108:                                              ; preds = %103
  br label %109

109:                                              ; preds = %108
  br label %110

110:                                              ; preds = %109
  br label %111

111:                                              ; preds = %110
  %112 = load ptr, ptr %10, align 8
  store ptr %112, ptr %28, align 8
  %113 = load ptr, ptr %11, align 8
  store ptr %113, ptr %29, align 8
  %114 = load ptr, ptr %15, align 8
  %115 = getelementptr inbounds %struct.SurfaceDataRasInfo, ptr %114, i32 0, i32 4
  %116 = load i32, ptr %115, align 8
  store i32 %116, ptr %30, align 4
  %117 = load ptr, ptr %16, align 8
  %118 = getelementptr inbounds %struct.SurfaceDataRasInfo, ptr %117, i32 0, i32 4
  %119 = load i32, ptr %118, align 8
  store i32 %119, ptr %31, align 4
  %120 = load i32, ptr %12, align 4
  %121 = mul i32 %120, 1
  %122 = load i32, ptr %30, align 4
  %123 = sub i32 %122, %121
  store i32 %123, ptr %30, align 4
  %124 = load i32, ptr %12, align 4
  %125 = mul i32 %124, 2
  %126 = load i32, ptr %31, align 4
  %127 = sub i32 %126, %125
  store i32 %127, ptr %31, align 4
  br label %128

128:                                              ; preds = %168, %111
  %129 = load i32, ptr %12, align 4
  store i32 %129, ptr %32, align 4
  br label %130

130:                                              ; preds = %151, %128
  br label %131

131:                                              ; preds = %130
  %132 = load ptr, ptr %28, align 8
  %133 = getelementptr inbounds i8, ptr %132, i64 0
  %134 = load i8, ptr %133, align 1
  %135 = zext i8 %134 to i64
  %136 = getelementptr inbounds [256 x i32], ptr %19, i64 0, i64 %135
  %137 = load i32, ptr %136, align 4
  store i32 %137, ptr %33, align 4
  %138 = load i32, ptr %33, align 4
  %139 = trunc i32 %138 to i16
  %140 = load ptr, ptr %29, align 8
  %141 = getelementptr inbounds i16, ptr %140, i64 0
  store i16 %139, ptr %141, align 2
  br label %142

142:                                              ; preds = %131
  %143 = load ptr, ptr %28, align 8
  %144 = ptrtoint ptr %143 to i64
  %145 = add nsw i64 %144, 1
  %146 = inttoptr i64 %145 to ptr
  store ptr %146, ptr %28, align 8
  %147 = load ptr, ptr %29, align 8
  %148 = ptrtoint ptr %147 to i64
  %149 = add nsw i64 %148, 2
  %150 = inttoptr i64 %149 to ptr
  store ptr %150, ptr %29, align 8
  br label %151

151:                                              ; preds = %142
  %152 = load i32, ptr %32, align 4
  %153 = add i32 %152, -1
  store i32 %153, ptr %32, align 4
  %154 = icmp ugt i32 %153, 0
  br i1 %154, label %130, label %155, !llvm.loop !43

155:                                              ; preds = %151
  %156 = load ptr, ptr %28, align 8
  %157 = ptrtoint ptr %156 to i64
  %158 = load i32, ptr %30, align 4
  %159 = sext i32 %158 to i64
  %160 = add nsw i64 %157, %159
  %161 = inttoptr i64 %160 to ptr
  store ptr %161, ptr %28, align 8
  %162 = load ptr, ptr %29, align 8
  %163 = ptrtoint ptr %162 to i64
  %164 = load i32, ptr %31, align 4
  %165 = sext i32 %164 to i64
  %166 = add nsw i64 %163, %165
  %167 = inttoptr i64 %166 to ptr
  store ptr %167, ptr %29, align 8
  br label %168

168:                                              ; preds = %155
  %169 = load i32, ptr %13, align 4
  %170 = add i32 %169, -1
  store i32 %170, ptr %13, align 4
  %171 = icmp ugt i32 %170, 0
  br i1 %171, label %128, label %172, !llvm.loop !44

172:                                              ; preds = %168
  br label %173

173:                                              ; preds = %172
  ret void
}